; Function Attrs: nounwind uwtable
define hidden void @je_emap_merge_prepare(ptr noundef %0, ptr noundef %1, ptr noundef writeonly captures(none) %2, ptr noundef readonly captures(none) %3, ptr noundef readonly captures(none) %4) local_unnamed_addr #0 {
  %6 = alloca %struct.rtree_ctx_s, align 8
  call void @llvm.lifetime.start.p0(i64 384, ptr nonnull %6) #6
  %7 = icmp eq ptr %0, null
  br i1 %7, label %8, label %9, !prof !20

8:                                                ; preds = %5
  call void @je_rtree_ctx_data_init(ptr noundef nonnull %6) #6
  br label %tsdn_rtree_ctx.exit

9:                                                ; preds = %5
  %10 = getelementptr inbounds nuw i8, ptr %0, i64 448
  br label %tsdn_rtree_ctx.exit

tsdn_rtree_ctx.exit:                              ; preds = %8, %9
  %.0.i = phi ptr [ %6, %8 ], [ %10, %9 ]
  %11 = getelementptr inbounds nuw i8, ptr %2, i64 8
  %12 = call fastcc zeroext i1 @emap_rtree_leaf_elms_lookup(ptr noundef %0, ptr noundef %1, ptr noundef nonnull %.0.i, ptr noundef %3, i1 noundef zeroext true, i1 noundef zeroext false, ptr noundef %2, ptr noundef nonnull %11)
  %13 = getelementptr inbounds nuw i8, ptr %2, i64 16
  %14 = getelementptr inbounds nuw i8, ptr %2, i64 24
  %15 = call fastcc zeroext i1 @emap_rtree_leaf_elms_lookup(ptr noundef %0, ptr noundef %1, ptr noundef nonnull %.0.i, ptr noundef %4, i1 noundef zeroext true, i1 noundef zeroext false, ptr noundef nonnull %13, ptr noundef nonnull %14)
  call void @llvm.lifetime.end.p0(i64 384, ptr nonnull %6) #6
  ret void
}